; Function Attrs: mustprogress nofree norecurse nounwind willreturn memory(write, argmem: readwrite, inaccessiblemem: none) uwtable
define noundef ptr @av_dirname(ptr noundef %0) local_unnamed_addr #13 {
  %.not = icmp eq ptr %0, null
  br i1 %.not, label %.thread, label %2

2:                                                ; preds = %1
  %3 = tail call ptr @strrchr(ptr noundef nonnull dereferenceable(1) %0, i32 noundef 47) #18
  %.not8 = icmp eq ptr %3, null
  br i1 %.not8, label %.thread, label %4

4:                                                ; preds = %2
  store i8 0, ptr %3, align 1, !tbaa !4
  br label %.thread

.thread:                                          ; preds = %1, %2, %4
  %.0 = phi ptr [ %0, %4 ], [ @.str.1, %2 ], [ @.str.1, %1 ]
  ret ptr %.0
}